; Function Attrs: nofree norecurse nosync nounwind memory(argmem: readwrite) uwtable
define internal void @biweight_h264_pixels2_12_c(ptr noundef captures(none) %0, ptr noundef readonly captures(none) %1, i64 noundef %2, i32 noundef %3, i32 noundef %4, i32 noundef %5, i32 noundef %6, i32 noundef %7) #1 {
  %9 = ashr i64 %2, 1
  %10 = shl i32 %7, 4
  %11 = or disjoint i32 %10, 1
  %12 = shl i32 %11, %4
  %13 = icmp sgt i32 %3, 0
  br i1 %13, label %.lr.ph, label %._crit_edge

.lr.ph:                                           ; preds = %8
  %14 = add nsw i32 %4, 1
  br label %15

15:                                               ; preds = %.lr.ph, %15
  %.033 = phi ptr [ %1, %.lr.ph ], [ %44, %15 ]
  %.02632 = phi ptr [ %0, %.lr.ph ], [ %43, %15 ]
  %.02731 = phi i32 [ 0, %.lr.ph ], [ %42, %15 ]
  %16 = load i16, ptr %.033, align 2, !tbaa !37
  %17 = zext i16 %16 to i32
  %18 = mul nsw i32 %6, %17
  %19 = load i16, ptr %.02632, align 2, !tbaa !37
  %20 = zext i16 %19 to i32
  %21 = mul nsw i32 %5, %20
  %22 = add i32 %18, %12
  %23 = add i32 %22, %21
  %24 = ashr i32 %23, %14
  %25 = tail call i32 @llvm.smax.i32(i32 %24, i32 0)
  %26 = tail call i32 @llvm.umin.i32(i32 %25, i32 4095)
  %27 = trunc nuw nsw i32 %26 to i16
  store i16 %27, ptr %.02632, align 2, !tbaa !37
  %28 = getelementptr inbounds nuw i8, ptr %.033, i64 2
  %29 = load i16, ptr %28, align 2, !tbaa !37
  %30 = zext i16 %29 to i32
  %31 = mul nsw i32 %6, %30
  %32 = getelementptr inbounds nuw i8, ptr %.02632, i64 2
  %33 = load i16, ptr %32, align 2, !tbaa !37
  %34 = zext i16 %33 to i32
  %35 = mul nsw i32 %5, %34
  %36 = add i32 %31, %12
  %37 = add i32 %36, %35
  %38 = ashr i32 %37, %14
  %39 = tail call i32 @llvm.smax.i32(i32 %38, i32 0)
  %40 = tail call i32 @llvm.umin.i32(i32 %39, i32 4095)
  %41 = trunc nuw nsw i32 %40 to i16
  store i16 %41, ptr %32, align 2, !tbaa !37
  %42 = add nuw nsw i32 %.02731, 1
  %43 = getelementptr inbounds i16, ptr %.02632, i64 %9
  %44 = getelementptr inbounds i16, ptr %.033, i64 %9
  %exitcond.not = icmp eq i32 %42, %3
  br i1 %exitcond.not, label %._crit_edge, label %15, !llvm.loop !80

._crit_edge:                                      ; preds = %15, %8
  ret void
}